target datalayout = "e-m:e-p270:32:32-p271:32:32-p272:64:64-i64:64-i128:128-f80:128-n8:16:32:64-S128"
target triple = "x86_64-pc-linux-gnu"

%struct.dict = type { ptr, [2 x ptr], [2 x i64], i64, i16, [2 x i8], i16, [0 x ptr] }

; Function Attrs: nounwind uwtable
define dso_local i32 @dictShrink(ptr noundef %0, i64 noundef %1) #0 {
  %3 = alloca i32, align 4
  %4 = alloca ptr, align 8
  %5 = alloca i64, align 8
  store ptr %0, ptr %4, align 8, !tbaa !18
  store i64 %1, ptr %5, align 8, !tbaa !11
  %6 = load ptr, ptr %4, align 8, !tbaa !18
  %7 = getelementptr inbounds nuw %struct.dict, ptr %6, i32 0, i32 3
  %8 = load i64, ptr %7, align 8, !tbaa !11
  %9 = icmp ne i64 %8, -1
  br i1 %9, label %37, label %10

10:                                               ; preds = %2
  %11 = load ptr, ptr %4, align 8, !tbaa !18
  %12 = getelementptr inbounds nuw %struct.dict, ptr %11, i32 0, i32 2
  %13 = getelementptr inbounds [2 x i64], ptr %12, i64 0, i64 0
  %14 = load i64, ptr %13, align 8, !tbaa !11
  %15 = load i64, ptr %5, align 8, !tbaa !11
  %16 = icmp ugt i64 %14, %15
  br i1 %16, label %37, label %17

17:                                               ; preds = %10
  %18 = load ptr, ptr %4, align 8, !tbaa !18
  %19 = getelementptr inbounds nuw %struct.dict, ptr %18, i32 0, i32 5
  %20 = getelementptr inbounds [2 x i8], ptr %19, i64 0, i64 0
  %21 = load i8, ptr %20, align 2, !tbaa !25
  %22 = sext i8 %21 to i32
  %23 = icmp eq i32 %22, -1
  br i1 %23, label %24, label %25

24:                                               ; preds = %17
  br label %33

25:                                               ; preds = %17
  %26 = load ptr, ptr %4, align 8, !tbaa !18
  %27 = getelementptr inbounds nuw %struct.dict, ptr %26, i32 0, i32 5
  %28 = getelementptr inbounds [2 x i8], ptr %27, i64 0, i64 0
  %29 = load i8, ptr %28, align 2, !tbaa !25
  %30 = sext i8 %29 to i32
  %31 = zext i32 %30 to i64
  %32 = shl i64 1, %31
  br label %33

33:                                               ; preds = %25, %24
  %34 = phi i64 [ 0, %24 ], [ %32, %25 ]
  %35 = load i64, ptr %5, align 8, !tbaa !11
  %36 = icmp ule i64 %34, %35
  br i1 %36, label %37, label %38

37:                                               ; preds = %33, %10, %2
  store i32 1, ptr %3, align 4
  br label %42

38:                                               ; preds = %33
  %39 = load ptr, ptr %4, align 8, !tbaa !18
  %40 = load i64, ptr %5, align 8, !tbaa !11
  %41 = call i32 @_dictResize(ptr noundef %39, i64 noundef %40, ptr noundef null)
  store i32 %41, ptr %3, align 4
  br label %42

42:                                               ; preds = %38, %37
  %43 = load i32, ptr %3, align 4
  ret i32 %43
}