; Function Attrs: nounwind uwtable
define dso_local range(i32 0, 2) i32 @dictShrink(ptr noundef %0, i64 noundef %1) local_unnamed_addr #3 {
  %3 = getelementptr inbounds nuw i8, ptr %0, i64 40
  %4 = load i64, ptr %3, align 8, !tbaa !14
  %.not = icmp eq i64 %4, -1
  br i1 %.not, label %5, label %17

5:                                                ; preds = %2
  %6 = getelementptr inbounds nuw i8, ptr %0, i64 24
  %7 = load i64, ptr %6, align 8, !tbaa !14
  %8 = icmp ugt i64 %7, %1
  br i1 %8, label %17, label %9

9:                                                ; preds = %5
  %10 = getelementptr inbounds nuw i8, ptr %0, i64 50
  %11 = load i8, ptr %10, align 2, !tbaa !13
  %12 = icmp ne i8 %11, -1
  %13 = sext i8 %11 to i64
  %14 = and i64 %13, 4294967295
  %.highbits = lshr i64 %1, %14
  %.not1011 = icmp eq i64 %.highbits, 0
  %.not10 = select i1 %12, i1 %.not1011, i1 false
  br i1 %.not10, label %15, label %17

15:                                               ; preds = %9
  %16 = tail call i32 @_dictResize(ptr noundef nonnull %0, i64 noundef %1, ptr noundef null)
  br label %17

17:                                               ; preds = %2, %5, %9, %15
  %.0 = phi i32 [ %16, %15 ], [ 1, %9 ], [ 1, %5 ], [ 1, %2 ]
  ret i32 %.0
}